target datalayout = "e-m:e-p270:32:32-p271:32:32-p272:64:64-i64:64-i128:128-f80:128-n8:16:32:64-S128"
target triple = "x86_64-pc-linux-gnu"

%"struct.std::atomic" = type { %"struct.std::__atomic_base" }
%"struct.std::__atomic_base" = type { i64 }
%"struct.std::atomic.108" = type { %"struct.std::__atomic_base.109" }
%"struct.std::__atomic_base.109" = type { i8 }
%"struct.std::atomic.208" = type { %"struct.std::__atomic_base.209" }
%"struct.std::__atomic_base.209" = type { i32 }
%"class.tbb::detail::d1::blocked_range" = type { i64, i64, i64 }
%"class.tbb::detail::d1::small_object_allocator" = type { ptr }
%"struct.tbb::detail::d1::wait_node" = type { %"struct.tbb::detail::d1::node.base", %"class.tbb::detail::d1::wait_context" }
%"struct.tbb::detail::d1::node.base" = type <{ ptr, %"struct.std::atomic.208" }>
%"class.tbb::detail::d1::wait_context" = type { i64, %"struct.std::atomic" }
%"class.tbb::detail::d1::task" = type { ptr, %"class.tbb::detail::d1::task_traits", [6 x i64] }
%"class.tbb::detail::d1::task_traits" = type { i64 }
%"class.tbb::detail::d1::auto_partition_type" = type { %"struct.tbb::detail::d1::dynamic_grainsize_mode.base", [3 x i8] }
%"struct.tbb::detail::d1::dynamic_grainsize_mode.base" = type <{ %"struct.tbb::detail::d1::adaptive_mode", i32, i8 }>
%"struct.tbb::detail::d1::adaptive_mode" = type { i64 }
%"struct.tbb::detail::d1::node" = type <{ ptr, %"struct.std::atomic.208", [4 x i8] }>
%"struct.tbb::detail::d1::execution_data" = type <{ ptr, i16, i16, [4 x i8] }>
%"struct.tbb::detail::d1::tree_node" = type <{ %"struct.tbb::detail::d1::node.base", [4 x i8], %"class.tbb::detail::d1::small_object_allocator", %"struct.std::atomic.108", [7 x i8] }>
%"class.tbb::detail::d1::parallel_for_body_wrapper.462" = type { ptr, i64, i64 }
%"struct.tbb::detail::d1::start_for.463" = type { %"class.tbb::detail::d1::task", %"class.tbb::detail::d1::blocked_range", %"class.tbb::detail::d1::parallel_for_body_wrapper.462", ptr, %"class.tbb::detail::d1::auto_partition_type", %"class.tbb::detail::d1::small_object_allocator", [48 x i8] }

; Function Attrs: alwaysinline mustprogress nounwind
define linkonce_odr dso_local noundef i64 @_ZNSt13__atomic_baseImE9fetch_addEmSt12memory_order(ptr noundef nonnull align 8 dereferenceable(8) %0, i64 noundef %1, i32 noundef %2) #8 comdat align 2 {
  %4 = alloca ptr, align 8
  %5 = alloca i64, align 8
  %6 = alloca i32, align 4
  %7 = alloca i64, align 8
  %8 = alloca i64, align 8
  store ptr %0, ptr %4, align 8, !tbaa !529
  store i64 %1, ptr %5, align 8, !tbaa !17
  store i32 %2, ptr %6, align 4, !tbaa !546
  %9 = load ptr, ptr %4, align 8
  %10 = getelementptr inbounds nuw %"struct.std::__atomic_base", ptr %9, i32 0, i32 0
  %11 = load i32, ptr %6, align 4, !tbaa !546
  %12 = load i64, ptr %5, align 8, !tbaa !17
  store i64 %12, ptr %7, align 8, !tbaa !17
  switch i32 %11, label %13 [
    i32 1, label %16
    i32 2, label %16
    i32 3, label %19
    i32 4, label %22
    i32 5, label %25
  ]

13:                                               ; preds = %3
  %14 = load i64, ptr %7, align 8
  %15 = atomicrmw add ptr %10, i64 %14 monotonic, align 8
  store i64 %15, ptr %8, align 8
  br label %28

16:                                               ; preds = %3, %3
  %17 = load i64, ptr %7, align 8
  %18 = atomicrmw add ptr %10, i64 %17 acquire, align 8
  store i64 %18, ptr %8, align 8
  br label %28

19:                                               ; preds = %3
  %20 = load i64, ptr %7, align 8
  %21 = atomicrmw add ptr %10, i64 %20 release, align 8
  store i64 %21, ptr %8, align 8
  br label %28

22:                                               ; preds = %3
  %23 = load i64, ptr %7, align 8
  %24 = atomicrmw add ptr %10, i64 %23 acq_rel, align 8
  store i64 %24, ptr %8, align 8
  br label %28

25:                                               ; preds = %3
  %26 = load i64, ptr %7, align 8
  %27 = atomicrmw add ptr %10, i64 %26 seq_cst, align 8
  store i64 %27, ptr %8, align 8
  br label %28

28:                                               ; preds = %25, %22, %19, %16, %13
  %29 = load i64, ptr %8, align 8, !tbaa !17
  ret i64 %29
}

; Function Attrs: mustprogress nounwind
define linkonce_odr dso_local void @_ZN3tbb6detail2d112wait_context13add_referenceEl(ptr noundef nonnull align 8 dereferenceable(16) %0, i64 noundef %1) #4 comdat align 2 {
  %3 = alloca ptr, align 8
  %4 = alloca i64, align 8
  %5 = alloca i64, align 8
  %6 = alloca i64, align 8
  store ptr %0, ptr %3, align 8, !tbaa !996
  store i64 %1, ptr %4, align 8, !tbaa !17
  %7 = load ptr, ptr %3, align 8
  call void @_ZN3tbb6detail2d120call_itt_task_notifyENS1_11notify_typeEPv(i32 noundef 3, ptr noundef %7)
  call void @llvm.lifetime.start.p0(i64 8, ptr %5) #3
  %8 = getelementptr inbounds nuw %"class.tbb::detail::d1::wait_context", ptr %7, i32 0, i32 1
  %9 = load i64, ptr %4, align 8, !tbaa !17
  %10 = call noundef i64 @_ZNSt13__atomic_baseImE9fetch_addEmSt12memory_order(ptr noundef nonnull align 8 dereferenceable(8) %8, i64 noundef %9, i32 noundef 5) #3
  %11 = load i64, ptr %4, align 8, !tbaa !17
  %12 = add i64 %10, %11
  store i64 %12, ptr %5, align 8, !tbaa !17
  %13 = load i64, ptr %5, align 8, !tbaa !17
  %14 = icmp ne i64 %13, 0
  br i1 %14, label %18, label %15

15:                                               ; preds = %2
  call void @llvm.lifetime.start.p0(i64 8, ptr %6) #3
  %16 = ptrtoint ptr %7 to i64
  store i64 %16, ptr %6, align 8, !tbaa !17
  %17 = load i64, ptr %6, align 8, !tbaa !17
  call void @_ZN3tbb6detail2r114notify_waitersEm(i64 noundef %17)
  call void @llvm.lifetime.end.p0(i64 8, ptr %6) #3
  br label %18

18:                                               ; preds = %15, %2
  call void @llvm.lifetime.end.p0(i64 8, ptr %5) #3
  ret void
}

; Function Attrs: mustprogress nounwind
define linkonce_odr dso_local void @_ZN3tbb6detail2d122small_object_allocator10deallocateINS1_9tree_nodeEEEvPT_RKNS1_14execution_dataE(ptr noundef nonnull align 8 dereferenceable(8) %0, ptr noundef %1, ptr noundef nonnull align 8 dereferenceable(12) %2) #4 comdat align 2 {
  %4 = alloca ptr, align 8
  %5 = alloca ptr, align 8
  %6 = alloca ptr, align 8
  store ptr %0, ptr %4, align 8, !tbaa !989
  store ptr %1, ptr %5, align 8, !tbaa !1030
  store ptr %2, ptr %6, align 8, !tbaa !1004
  %7 = load ptr, ptr %4, align 8
  %8 = load ptr, ptr %5, align 8, !tbaa !1030
  call void @_ZN3tbb6detail2d120call_itt_task_notifyENS1_11notify_typeEPv(i32 noundef 4, ptr noundef %8)
  %9 = getelementptr inbounds nuw %"class.tbb::detail::d1::small_object_allocator", ptr %7, i32 0, i32 0
  %10 = load ptr, ptr %9, align 8, !tbaa !991
  %11 = load ptr, ptr %5, align 8, !tbaa !1030
  %12 = load ptr, ptr %6, align 8, !tbaa !1004
  call void @_ZN3tbb6detail2r110deallocateERNS0_2d117small_object_poolEPvmRKNS2_14execution_dataE(ptr noundef nonnull align 1 dereferenceable(1) %10, ptr noundef %11, i64 noundef 32, ptr noundef nonnull align 8 dereferenceable(12) %12)
  ret void
}

; Function Attrs: mustprogress nounwind
define linkonce_odr dso_local void @_ZN3tbb6detail2d112wait_context7releaseEj(ptr noundef nonnull align 8 dereferenceable(16) %0, i32 noundef %1) #4 comdat align 2 {
  %3 = alloca ptr, align 8
  %4 = alloca i32, align 4
  store ptr %0, ptr %3, align 8, !tbaa !996
  store i32 %1, ptr %4, align 4, !tbaa !329
  %5 = load ptr, ptr %3, align 8
  %6 = load i32, ptr %4, align 4, !tbaa !329
  %7 = zext i32 %6 to i64
  %8 = sub nsw i64 0, %7
  call void @_ZN3tbb6detail2d112wait_context13add_referenceEl(ptr noundef nonnull align 8 dereferenceable(16) %5, i64 noundef %8)
  ret void
}

; Function Attrs: mustprogress nounwind
define linkonce_odr dso_local void @_ZN3tbb6detail2d122small_object_allocator13delete_objectINS1_9tree_nodeEEEvPT_RKNS1_14execution_dataE(ptr noundef nonnull align 8 dereferenceable(8) %0, ptr noundef %1, ptr noundef nonnull align 8 dereferenceable(12) %2) #4 comdat align 2 {
  %4 = alloca ptr, align 8
  %5 = alloca ptr, align 8
  %6 = alloca ptr, align 8
  %7 = alloca %"class.tbb::detail::d1::small_object_allocator", align 8
  store ptr %0, ptr %4, align 8, !tbaa !989
  store ptr %1, ptr %5, align 8, !tbaa !1030
  store ptr %2, ptr %6, align 8, !tbaa !1004
  %8 = load ptr, ptr %4, align 8
  call void @llvm.lifetime.start.p0(i64 8, ptr %7) #3
  call void @llvm.memcpy.p0.p0.i64(ptr align 8 %7, ptr align 8 %8, i64 8, i1 false), !tbaa.struct !999
  %9 = load ptr, ptr %5, align 8, !tbaa !1030
  %10 = load ptr, ptr %6, align 8, !tbaa !1004
  call void @_ZN3tbb6detail2d122small_object_allocator10deallocateINS1_9tree_nodeEEEvPT_RKNS1_14execution_dataE(ptr noundef nonnull align 8 dereferenceable(8) %7, ptr noundef %9, ptr noundef nonnull align 8 dereferenceable(12) %10)
  call void @llvm.lifetime.end.p0(i64 8, ptr %7) #3
  ret void
}

; Function Attrs: mustprogress nounwind
define linkonce_odr dso_local void @_ZN3tbb6detail2d19tree_node4joinEPNS1_18task_group_contextE(ptr noundef nonnull align 8 dereferenceable(25) %0, ptr noundef %1) #4 comdat align 2 {
  %3 = alloca ptr, align 8
  %4 = alloca ptr, align 8
  store ptr %0, ptr %3, align 8, !tbaa !1030
  store ptr %1, ptr %4, align 8, !tbaa !931
  ret void
}

; Function Attrs: mustprogress nounwind
define linkonce_odr dso_local noundef i32 @_ZNSt13__atomic_baseIiEmmEv(ptr noundef nonnull align 4 dereferenceable(4) %0) #4 comdat align 2 {
  %2 = alloca ptr, align 8
  %3 = alloca i32, align 4
  %4 = alloca i32, align 4
  store ptr %0, ptr %2, align 8, !tbaa !1021
  %5 = load ptr, ptr %2, align 8
  %6 = getelementptr inbounds nuw %"struct.std::__atomic_base.209", ptr %5, i32 0, i32 0
  store i32 1, ptr %3, align 4, !tbaa !329
  %7 = load i32, ptr %3, align 4
  %8 = atomicrmw sub ptr %6, i32 %7 seq_cst, align 4
  %9 = sub i32 %8, %7
  store i32 %9, ptr %4, align 4
  %10 = load i32, ptr %4, align 4, !tbaa !329
  ret i32 %10
}

; Function Attrs: inlinehint mustprogress nounwind
define linkonce_odr dso_local void @_ZN3tbb6detail2d120call_itt_task_notifyENS1_11notify_typeEPv(i32 noundef %0, ptr noundef %1) #7 comdat {
  %3 = alloca i32, align 4
  %4 = alloca ptr, align 8
  store i32 %0, ptr %3, align 4, !tbaa !1037
  store ptr %1, ptr %4, align 8, !tbaa !351
  ret void
}

; Function Attrs: mustprogress nounwind
define internal void @_ZN3tbb6detail2d122small_object_allocator10deallocateINS1_9start_forINS1_13blocked_rangeIlEENS1_25parallel_for_body_wrapperIZN4moldL15gather_sectionsINS8_6X86_64EEESt6vectorIPNS8_12InputSectionIT_EESaISF_EERNS8_7ContextISD_EEEUllE_lEEKNS1_16auto_partitionerEEEEEvPSD_RKNS1_14execution_dataE(ptr noundef nonnull align 8 dereferenceable(8) %0, ptr noundef %1, ptr noundef nonnull align 8 dereferenceable(12) %2) #4 align 2 {
  %4 = alloca ptr, align 8
  %5 = alloca ptr, align 8
  %6 = alloca ptr, align 8
  store ptr %0, ptr %4, align 8, !tbaa !989
  store ptr %1, ptr %5, align 8, !tbaa !1371
  store ptr %2, ptr %6, align 8, !tbaa !1004
  %7 = load ptr, ptr %4, align 8
  %8 = load ptr, ptr %5, align 8, !tbaa !1371
  call void @_ZN3tbb6detail2d120call_itt_task_notifyENS1_11notify_typeEPv(i32 noundef 4, ptr noundef %8)
  %9 = getelementptr inbounds nuw %"class.tbb::detail::d1::small_object_allocator", ptr %7, i32 0, i32 0
  %10 = load ptr, ptr %9, align 8, !tbaa !991
  %11 = load ptr, ptr %5, align 8, !tbaa !1371
  %12 = load ptr, ptr %6, align 8, !tbaa !1004
  call void @_ZN3tbb6detail2r110deallocateERNS0_2d117small_object_poolEPvmRKNS2_14execution_dataE(ptr noundef nonnull align 1 dereferenceable(1) %10, ptr noundef %11, i64 noundef 192, ptr noundef nonnull align 8 dereferenceable(12) %12)
  ret void
}

; Function Attrs: mustprogress nounwind
define linkonce_odr dso_local void @_ZN3tbb6detail2d19fold_treeINS1_9tree_nodeEEEvPNS1_4nodeERKNS1_14execution_dataE(ptr noundef %0, ptr noundef nonnull align 8 dereferenceable(12) %1) #4 comdat {
  %3 = alloca ptr, align 8
  %4 = alloca ptr, align 8
  %5 = alloca ptr, align 8
  %6 = alloca i32, align 4
  %7 = alloca ptr, align 8
  store ptr %0, ptr %3, align 8, !tbaa !1018
  store ptr %1, ptr %4, align 8, !tbaa !1004
  br label %8

8:                                                ; preds = %36, %2
  %9 = load ptr, ptr %3, align 8, !tbaa !1018
  call void @_ZN3tbb6detail2d120call_itt_task_notifyENS1_11notify_typeEPv(i32 noundef 3, ptr noundef %9)
  %10 = load ptr, ptr %3, align 8, !tbaa !1018
  %11 = getelementptr inbounds nuw %"struct.tbb::detail::d1::node", ptr %10, i32 0, i32 1
  %12 = call noundef i32 @_ZNSt13__atomic_baseIiEmmEv(ptr noundef nonnull align 4 dereferenceable(4) %11) #3
  %13 = icmp sgt i32 %12, 0
  br i1 %13, label %14, label %15

14:                                               ; preds = %8
  br label %40

15:                                               ; preds = %8
  call void @llvm.lifetime.start.p0(i64 8, ptr %5) #3
  %16 = load ptr, ptr %3, align 8, !tbaa !1018
  %17 = getelementptr inbounds nuw %"struct.tbb::detail::d1::node", ptr %16, i32 0, i32 0
  %18 = load ptr, ptr %17, align 8, !tbaa !1032
  store ptr %18, ptr %5, align 8, !tbaa !1018
  %19 = load ptr, ptr %5, align 8, !tbaa !1018
  %20 = icmp ne ptr %19, null
  br i1 %20, label %22, label %21

21:                                               ; preds = %15
  store i32 2, ptr %6, align 4
  br label %34

22:                                               ; preds = %15
  %23 = load ptr, ptr %3, align 8, !tbaa !1018
  call void @_ZN3tbb6detail2d120call_itt_task_notifyENS1_11notify_typeEPv(i32 noundef 2, ptr noundef %23)
  call void @llvm.lifetime.start.p0(i64 8, ptr %7) #3
  %24 = load ptr, ptr %3, align 8, !tbaa !1018
  store ptr %24, ptr %7, align 8, !tbaa !1030
  %25 = load ptr, ptr %7, align 8, !tbaa !1030
  %26 = load ptr, ptr %4, align 8, !tbaa !1004
  %27 = getelementptr inbounds nuw %"struct.tbb::detail::d1::execution_data", ptr %26, i32 0, i32 0
  %28 = load ptr, ptr %27, align 8, !tbaa !1026
  call void @_ZN3tbb6detail2d19tree_node4joinEPNS1_18task_group_contextE(ptr noundef nonnull align 8 dereferenceable(25) %25, ptr noundef %28)
  %29 = load ptr, ptr %7, align 8, !tbaa !1030
  %30 = getelementptr inbounds nuw %"struct.tbb::detail::d1::tree_node", ptr %29, i32 0, i32 2
  %31 = load ptr, ptr %7, align 8, !tbaa !1030
  %32 = load ptr, ptr %4, align 8, !tbaa !1004
  call void @_ZN3tbb6detail2d122small_object_allocator13delete_objectINS1_9tree_nodeEEEvPT_RKNS1_14execution_dataE(ptr noundef nonnull align 8 dereferenceable(8) %30, ptr noundef %31, ptr noundef nonnull align 8 dereferenceable(12) %32)
  %33 = load ptr, ptr %5, align 8, !tbaa !1018
  store ptr %33, ptr %3, align 8, !tbaa !1018
  call void @llvm.lifetime.end.p0(i64 8, ptr %7) #3
  store i32 0, ptr %6, align 4
  br label %34

34:                                               ; preds = %22, %21
  call void @llvm.lifetime.end.p0(i64 8, ptr %5) #3
  %35 = load i32, ptr %6, align 4
  switch i32 %35, label %41 [
    i32 0, label %36
    i32 2, label %37
  ]

36:                                               ; preds = %34
  br label %8, !llvm.loop !1325

37:                                               ; preds = %34
  %38 = load ptr, ptr %3, align 8, !tbaa !1018
  %39 = getelementptr inbounds nuw %"struct.tbb::detail::d1::wait_node", ptr %38, i32 0, i32 1
  call void @_ZN3tbb6detail2d112wait_context7releaseEj(ptr noundef nonnull align 8 dereferenceable(16) %39, i32 noundef 1)
  br label %40

40:                                               ; preds = %37, %14
  ret void

41:                                               ; preds = %34
  unreachable
}

; Function Attrs: mustprogress nounwind
define internal void @_ZN3tbb6detail2d19start_forINS1_13blocked_rangeIlEENS1_25parallel_for_body_wrapperIZN4moldL15gather_sectionsINS6_6X86_64EEESt6vectorIPNS6_12InputSectionIT_EESaISD_EERNS6_7ContextISB_EEEUllE_lEEKNS1_16auto_partitionerEE8finalizeERKNS1_14execution_dataE(ptr noundef nonnull align 64 dereferenceable(144) %0, ptr noundef nonnull align 8 dereferenceable(12) %1) #4 align 2 {
  %3 = alloca ptr, align 8
  %4 = alloca ptr, align 8
  %5 = alloca ptr, align 8
  %6 = alloca %"class.tbb::detail::d1::small_object_allocator", align 8
  store ptr %0, ptr %3, align 8, !tbaa !1371
  store ptr %1, ptr %4, align 8, !tbaa !1004
  %7 = load ptr, ptr %3, align 8
  call void @llvm.lifetime.start.p0(i64 8, ptr %5) #3
  %8 = getelementptr inbounds nuw %"struct.tbb::detail::d1::start_for.463", ptr %7, i32 0, i32 3
  %9 = load ptr, ptr %8, align 16, !tbaa !1373
  store ptr %9, ptr %5, align 8, !tbaa !1018
  call void @llvm.lifetime.start.p0(i64 8, ptr %6) #3
  %10 = getelementptr inbounds nuw %"struct.tbb::detail::d1::start_for.463", ptr %7, i32 0, i32 5
  call void @llvm.memcpy.p0.p0.i64(ptr align 8 %6, ptr align 8 %10, i64 8, i1 false), !tbaa.struct !999
  %11 = load ptr, ptr %7, align 64, !tbaa !561
  %12 = getelementptr inbounds ptr, ptr %11, i64 0
  %13 = load ptr, ptr %12, align 8
  call void %13(ptr noundef nonnull align 64 dereferenceable(144) %7) #3
  %14 = load ptr, ptr %5, align 8, !tbaa !1018
  %15 = load ptr, ptr %4, align 8, !tbaa !1004
  call void @_ZN3tbb6detail2d19fold_treeINS1_9tree_nodeEEEvPNS1_4nodeERKNS1_14execution_dataE(ptr noundef %14, ptr noundef nonnull align 8 dereferenceable(12) %15)
  %16 = load ptr, ptr %4, align 8, !tbaa !1004
  call void @_ZN3tbb6detail2d122small_object_allocator10deallocateINS1_9start_forINS1_13blocked_rangeIlEENS1_25parallel_for_body_wrapperIZN4moldL15gather_sectionsINS8_6X86_64EEESt6vectorIPNS8_12InputSectionIT_EESaISF_EERNS8_7ContextISD_EEEUllE_lEEKNS1_16auto_partitionerEEEEEvPSD_RKNS1_14execution_dataE(ptr noundef nonnull align 8 dereferenceable(8) %6, ptr noundef %7, ptr noundef nonnull align 8 dereferenceable(12) %16)
  call void @llvm.lifetime.end.p0(i64 8, ptr %6) #3
  call void @llvm.lifetime.end.p0(i64 8, ptr %5) #3
  ret void
}

; Function Attrs: mustprogress nounwind
define internal noundef ptr @_ZN3tbb6detail2d19start_forINS1_13blocked_rangeIlEENS1_25parallel_for_body_wrapperIZN4moldL15gather_sectionsINS6_6X86_64EEESt6vectorIPNS6_12InputSectionIT_EESaISD_EERNS6_7ContextISB_EEEUllE_lEEKNS1_16auto_partitionerEE6cancelERNS1_14execution_dataE(ptr noundef nonnull align 64 dereferenceable(144) %0, ptr noundef nonnull align 8 dereferenceable(12) %1) unnamed_addr #4 align 2 {
  %3 = alloca ptr, align 8
  %4 = alloca ptr, align 8
  store ptr %0, ptr %3, align 8, !tbaa !1371
  store ptr %1, ptr %4, align 8, !tbaa !1004
  %5 = load ptr, ptr %3, align 8
  %6 = load ptr, ptr %4, align 8, !tbaa !1004
  call void @_ZN3tbb6detail2d19start_forINS1_13blocked_rangeIlEENS1_25parallel_for_body_wrapperIZN4moldL15gather_sectionsINS6_6X86_64EEESt6vectorIPNS6_12InputSectionIT_EESaISD_EERNS6_7ContextISB_EEEUllE_lEEKNS1_16auto_partitionerEE8finalizeERKNS1_14execution_dataE(ptr noundef nonnull align 64 dereferenceable(144) %5, ptr noundef nonnull align 8 dereferenceable(12) %6)
  ret ptr null
}